; Function Attrs: nounwind uwtable
define ptr @l_List_flatMapTR_go___at_Lean_Elab_InfoTree_hoverableInfoAt_x3f___spec__1(ptr noundef %0, ptr noundef %1) local_unnamed_addr #0 {
  br label %3

3:                                                ; preds = %lean_dec.exit26, %2
  %.023 = phi ptr [ %1, %2 ], [ %81, %lean_dec.exit26 ]
  %.0 = phi ptr [ %0, %2 ], [ %33, %lean_dec.exit26 ]
  %4 = ptrtoint ptr %.0 to i64
  %5 = and i64 %4, 1
  %.not.i34 = icmp eq i64 %5, 0
  br i1 %.not.i34, label %9, label %6

6:                                                ; preds = %3
  %7 = lshr i64 %4, 1
  %8 = trunc i64 %7 to i32
  br label %lean_obj_tag.exit

9:                                                ; preds = %3
  %10 = getelementptr i8, ptr %.0, i64 4
  %.val.i = load i32, ptr %10, align 4
  %11 = lshr i32 %.val.i, 24
  br label %lean_obj_tag.exit

lean_obj_tag.exit:                                ; preds = %6, %9
  %.0.i = phi i32 [ %8, %6 ], [ %11, %9 ]
  %12 = icmp eq i32 %.0.i, 0
  br i1 %12, label %13, label %15

13:                                               ; preds = %lean_obj_tag.exit
  %14 = tail call ptr @lean_array_to_list(ptr noundef %.023) #7
  ret ptr %14

15:                                               ; preds = %lean_obj_tag.exit
  %16 = getelementptr inbounds nuw i8, ptr %.0, i64 8
  %17 = load ptr, ptr %16, align 8, !tbaa !9
  %18 = ptrtoint ptr %17 to i64
  %19 = and i64 %18, 1
  %.not = icmp eq i64 %19, 0
  br i1 %.not, label %20, label %lean_inc.exit29

20:                                               ; preds = %15
  %.val.i35 = load i32, ptr %17, align 4, !tbaa !4
  %21 = icmp sgt i32 %.val.i35, 0
  br i1 %21, label %22, label %24, !prof !15

22:                                               ; preds = %20
  %23 = add nuw i32 %.val.i35, 1
  store i32 %23, ptr %17, align 4, !tbaa !4
  br label %28

24:                                               ; preds = %20
  %.not.i36 = icmp eq i32 %.val.i35, 0
  br i1 %.not.i36, label %28, label %25

25:                                               ; preds = %24
  tail call void @lean_inc_ref_cold(ptr noundef nonnull %17) #7
  br label %28

lean_inc.exit29:                                  ; preds = %15
  %26 = lshr i64 %18, 1
  %27 = trunc i64 %26 to i32
  br label %lean_obj_tag.exit40

28:                                               ; preds = %25, %24, %22
  %29 = getelementptr i8, ptr %17, i64 4
  %.val.i39 = load i32, ptr %29, align 4
  %30 = lshr i32 %.val.i39, 24
  br label %lean_obj_tag.exit40

lean_obj_tag.exit40:                              ; preds = %lean_inc.exit29, %28
  %.0.i38 = phi i32 [ %27, %lean_inc.exit29 ], [ %30, %28 ]
  %31 = icmp eq i32 %.0.i38, 0
  %32 = getelementptr inbounds nuw i8, ptr %.0, i64 16
  %33 = load ptr, ptr %32, align 8, !tbaa !9
  %34 = ptrtoint ptr %33 to i64
  %35 = and i64 %34, 1
  %.not54 = icmp eq i64 %35, 0
  br i1 %31, label %36, label %50

36:                                               ; preds = %lean_obj_tag.exit40
  br i1 %.not54, label %37, label %lean_inc.exit28

37:                                               ; preds = %36
  %.val.i41 = load i32, ptr %33, align 4, !tbaa !4
  %38 = icmp sgt i32 %.val.i41, 0
  br i1 %38, label %39, label %41, !prof !15

39:                                               ; preds = %37
  %40 = add nuw i32 %.val.i41, 1
  store i32 %40, ptr %33, align 4, !tbaa !4
  br label %lean_inc.exit28

41:                                               ; preds = %37
  %.not.i42 = icmp eq i32 %.val.i41, 0
  br i1 %.not.i42, label %lean_inc.exit28, label %42

42:                                               ; preds = %41
  tail call void @lean_inc_ref_cold(ptr noundef nonnull %33) #7
  br label %lean_inc.exit28

lean_inc.exit28:                                  ; preds = %42, %41, %39, %36
  br i1 %.not.i34, label %43, label %lean_dec.exit26

43:                                               ; preds = %lean_inc.exit28
  %44 = load i32, ptr %.0, align 4, !tbaa !4
  %45 = icmp sgt i32 %44, 1
  br i1 %45, label %46, label %48, !prof !15

46:                                               ; preds = %43
  %47 = add nsw i32 %44, -1
  store i32 %47, ptr %.0, align 4, !tbaa !4
  br label %lean_dec.exit26

48:                                               ; preds = %43
  %.not.i = icmp eq i32 %44, 0
  br i1 %.not.i, label %lean_dec.exit26, label %49

49:                                               ; preds = %48
  tail call void @lean_dec_ref_cold(ptr noundef nonnull %.0) #7
  br label %lean_dec.exit26

50:                                               ; preds = %lean_obj_tag.exit40
  br i1 %.not54, label %51, label %lean_inc.exit27

51:                                               ; preds = %50
  %.val.i44 = load i32, ptr %33, align 4, !tbaa !4
  %52 = icmp sgt i32 %.val.i44, 0
  br i1 %52, label %53, label %55, !prof !15

53:                                               ; preds = %51
  %54 = add nuw i32 %.val.i44, 1
  store i32 %54, ptr %33, align 4, !tbaa !4
  br label %lean_inc.exit27

55:                                               ; preds = %51
  %.not.i45 = icmp eq i32 %.val.i44, 0
  br i1 %.not.i45, label %lean_inc.exit27, label %56

56:                                               ; preds = %55
  tail call void @lean_inc_ref_cold(ptr noundef nonnull %33) #7
  br label %lean_inc.exit27

lean_inc.exit27:                                  ; preds = %56, %55, %53, %50
  br i1 %.not.i34, label %57, label %lean_dec.exit25

57:                                               ; preds = %lean_inc.exit27
  %58 = load i32, ptr %.0, align 4, !tbaa !4
  %59 = icmp sgt i32 %58, 1
  br i1 %59, label %60, label %62, !prof !15

60:                                               ; preds = %57
  %61 = add nsw i32 %58, -1
  store i32 %61, ptr %.0, align 4, !tbaa !4
  br label %lean_dec.exit25

62:                                               ; preds = %57
  %.not.i30 = icmp eq i32 %58, 0
  br i1 %.not.i30, label %lean_dec.exit25, label %63

63:                                               ; preds = %62
  tail call void @lean_dec_ref_cold(ptr noundef nonnull %.0) #7
  br label %lean_dec.exit25

lean_dec.exit25:                                  ; preds = %63, %62, %60, %lean_inc.exit27
  %64 = getelementptr inbounds nuw i8, ptr %17, i64 8
  %65 = load ptr, ptr %64, align 8, !tbaa !9
  %66 = ptrtoint ptr %65 to i64
  %67 = and i64 %66, 1
  %.not53 = icmp eq i64 %67, 0
  br i1 %.not53, label %68, label %lean_inc.exit

68:                                               ; preds = %lean_dec.exit25
  %.val.i47 = load i32, ptr %65, align 4, !tbaa !4
  %69 = icmp sgt i32 %.val.i47, 0
  br i1 %69, label %70, label %72, !prof !15

70:                                               ; preds = %68
  %71 = add nuw i32 %.val.i47, 1
  store i32 %71, ptr %65, align 4, !tbaa !4
  br label %lean_inc.exit

72:                                               ; preds = %68
  %.not.i48 = icmp eq i32 %.val.i47, 0
  br i1 %.not.i48, label %lean_inc.exit, label %73

73:                                               ; preds = %72
  tail call void @lean_inc_ref_cold(ptr noundef nonnull %65) #7
  br label %lean_inc.exit

lean_inc.exit:                                    ; preds = %73, %72, %70, %lean_dec.exit25
  br i1 %.not, label %74, label %lean_dec.exit26

74:                                               ; preds = %lean_inc.exit
  %75 = load i32, ptr %17, align 4, !tbaa !4
  %76 = icmp sgt i32 %75, 1
  br i1 %76, label %77, label %79, !prof !15

77:                                               ; preds = %74
  %78 = add nsw i32 %75, -1
  store i32 %78, ptr %17, align 4, !tbaa !4
  br label %lean_dec.exit26

79:                                               ; preds = %74
  %.not.i32 = icmp eq i32 %75, 0
  br i1 %.not.i32, label %lean_dec.exit26, label %80

80:                                               ; preds = %79
  tail call void @lean_dec_ref_cold(ptr noundef nonnull %17) #7
  br label %lean_dec.exit26

lean_dec.exit26:                                  ; preds = %lean_inc.exit, %77, %79, %80, %lean_inc.exit28, %46, %48, %49
  %.sink = phi ptr [ inttoptr (i64 1 to ptr), %49 ], [ inttoptr (i64 1 to ptr), %48 ], [ inttoptr (i64 1 to ptr), %46 ], [ inttoptr (i64 1 to ptr), %lean_inc.exit28 ], [ %65, %80 ], [ %65, %79 ], [ %65, %77 ], [ %65, %lean_inc.exit ]
  %81 = tail call ptr @l_List_foldl___at_Array_appendList___spec__1___rarg(ptr noundef %.023, ptr noundef %.sink) #7
  br label %3
}